; Function Attrs: nounwind uwtable
define hidden void @zim_SplFileInfo_openFile(ptr nocapture noundef readonly %0, ptr noundef %1) #0 {
  %3 = getelementptr inbounds i8, ptr %0, i64 32
  %4 = load ptr, ptr %3, align 8
  %5 = getelementptr inbounds i8, ptr %4, i64 -384
  %6 = getelementptr inbounds i8, ptr %0, i64 44
  %7 = load i32, ptr %6, align 4
  tail call fastcc void @spl_filesystem_object_create_type(i32 noundef %7, ptr noundef nonnull %5, i32 noundef 2, ptr noundef null, ptr noundef %1)
  ret void
}